; Function Attrs: nounwind uwtable
define internal void @fn_counter(ptr noundef readonly captures(none) %0, ptr noundef readonly captures(none) %1, i32 noundef %2) #0 {
  %4 = alloca %struct.strbuf, align 8
  %.not = icmp eq i32 %2, 0
  %5 = select i1 %.not, ptr @.str.34, ptr @.str.33
  call void @llvm.lifetime.start.p0(i64 24, ptr nonnull %4) #7
  call void @llvm.memcpy.p0.p0.i64(ptr noundef nonnull align 8 dereferenceable(24) %4, ptr noundef nonnull align 8 dereferenceable(24) @__const.fn_counter.buf_payload, i64 24, i1 false)
  %6 = load ptr, ptr %0, align 8, !tbaa !53
  %7 = getelementptr inbounds nuw i8, ptr %0, i64 8
  %8 = load ptr, ptr %7, align 8, !tbaa !55
  %9 = load i64, ptr %1, align 8, !tbaa !56
  call void (ptr, ptr, ...) @strbuf_addf(ptr noundef nonnull %4, ptr noundef nonnull @.str.35, ptr noundef nonnull %5, ptr noundef %6, ptr noundef %8, i64 noundef %9) #7
  call fastcc void @normal_io_write_fl(ptr noundef nonnull @.str.8, i32 noundef 372, ptr noundef %4)
  call void @strbuf_release(ptr noundef nonnull %4) #7
  call void @llvm.lifetime.end.p0(i64 24, ptr nonnull %4) #7
  ret void
}